target datalayout = "e-m:e-p270:32:32-p271:32:32-p272:64:64-i64:64-i128:128-f80:128-n8:16:32:64-S128"
target triple = "x86_64-pc-linux-gnu"

@hf_sysact_si_authflalgs = internal global i32 0, align 4
@hf_sysact_unused_buffer = internal global i32 0, align 4
@ett_dcom_securityinfo = internal global i32 0, align 4
@.str.165 = private unnamed_addr constant [13 x i8] c"SecurityInfo\00", align 1
@.str.166 = private unnamed_addr constant [14 x i8] c"ServerInfoPtr\00", align 1
@.str.167 = private unnamed_addr constant [12 x i8] c"ReservedPtr\00", align 1

; Function Attrs: null_pointer_is_valid sspstrong uwtable
define internal i32 @dissect_dcom_SecurtiyInfo(ptr noundef %0, i32 noundef %1, ptr noundef %2, ptr noundef %3, ptr noundef %4, ptr noundef %5, i32 noundef %6) #0 {
  %8 = alloca ptr, align 8
  %9 = alloca i32, align 4
  %10 = alloca ptr, align 8
  %11 = alloca ptr, align 8
  %12 = alloca ptr, align 8
  %13 = alloca ptr, align 8
  %14 = alloca i32, align 4
  %15 = alloca ptr, align 8
  %16 = alloca i32, align 4
  %17 = alloca i32, align 4
  store ptr %0, ptr %8, align 8
  store i32 %1, ptr %9, align 4
  store ptr %2, ptr %10, align 8
  store ptr %3, ptr %11, align 8
  store ptr %4, ptr %12, align 8
  store ptr %5, ptr %13, align 8
  store i32 %6, ptr %14, align 4
  call void @llvm.lifetime.start.p0(i64 8, ptr %15) #5
  call void @llvm.lifetime.start.p0(i64 4, ptr %16) #5
  call void @llvm.lifetime.start.p0(i64 4, ptr %17) #5
  %18 = load i32, ptr %9, align 4
  store i32 %18, ptr %16, align 4
  %19 = load i32, ptr %14, align 4
  %20 = icmp sle i32 %19, 0
  br i1 %20, label %21, label %22

21:                                               ; preds = %7
  store i32 -1, ptr %14, align 4
  br label %22

22:                                               ; preds = %21, %7
  %23 = load ptr, ptr %11, align 8
  %24 = load ptr, ptr %8, align 8
  %25 = load i32, ptr %9, align 4
  %26 = load i32, ptr %14, align 4
  %27 = load i32, ptr @ett_dcom_securityinfo, align 4
  %28 = call ptr @proto_tree_add_subtree(ptr noundef %23, ptr noundef %24, i32 noundef %25, i32 noundef %26, i32 noundef %27, ptr noundef null, ptr noundef @.str.165)
  store ptr %28, ptr %15, align 8
  %29 = load ptr, ptr %8, align 8
  %30 = load i32, ptr %9, align 4
  %31 = load ptr, ptr %10, align 8
  %32 = load ptr, ptr %15, align 8
  %33 = load ptr, ptr %12, align 8
  %34 = load ptr, ptr %13, align 8
  %35 = call i32 @dissect_TypeSzCommPrivHdr(ptr noundef %29, i32 noundef %30, ptr noundef %31, ptr noundef %32, ptr noundef %33, ptr noundef %34)
  store i32 %35, ptr %9, align 4
  %36 = load ptr, ptr %8, align 8
  %37 = load i32, ptr %9, align 4
  %38 = load ptr, ptr %10, align 8
  %39 = load ptr, ptr %15, align 8
  %40 = load ptr, ptr %12, align 8
  %41 = load ptr, ptr %13, align 8
  %42 = load i32, ptr @hf_sysact_si_authflalgs, align 4
  %43 = call i32 @dissect_ndr_uint32(ptr noundef %36, i32 noundef %37, ptr noundef %38, ptr noundef %39, ptr noundef %40, ptr noundef %41, i32 noundef %42, ptr noundef null)
  store i32 %43, ptr %9, align 4
  %44 = load ptr, ptr %8, align 8
  %45 = load i32, ptr %9, align 4
  %46 = load ptr, ptr %10, align 8
  %47 = load ptr, ptr %15, align 8
  %48 = load ptr, ptr %12, align 8
  %49 = load ptr, ptr %13, align 8
  %50 = call i32 @dissect_ndr_embedded_pointer(ptr noundef %44, i32 noundef %45, ptr noundef %46, ptr noundef %47, ptr noundef %48, ptr noundef %49, ptr noundef @dissect_dcom_SI_ServerInfo, i32 noundef 2, ptr noundef @.str.166, i32 noundef -1)
  store i32 %50, ptr %9, align 4
  %51 = load ptr, ptr %8, align 8
  %52 = load i32, ptr %9, align 4
  %53 = load ptr, ptr %10, align 8
  %54 = load ptr, ptr %15, align 8
  %55 = load ptr, ptr %12, align 8
  %56 = load ptr, ptr %13, align 8
  %57 = call i32 @dissect_ndr_embedded_pointer(ptr noundef %51, i32 noundef %52, ptr noundef %53, ptr noundef %54, ptr noundef %55, ptr noundef %56, ptr noundef null, i32 noundef 2, ptr noundef @.str.167, i32 noundef -1)
  store i32 %57, ptr %9, align 4
  %58 = load ptr, ptr %10, align 8
  %59 = load ptr, ptr %8, align 8
  %60 = load i32, ptr %9, align 4
  %61 = load ptr, ptr %12, align 8
  %62 = load ptr, ptr %13, align 8
  %63 = call i32 @dissect_deferred_pointers(ptr noundef %58, ptr noundef %59, i32 noundef %60, ptr noundef %61, ptr noundef %62)
  store i32 %63, ptr %9, align 4
  %64 = load i32, ptr %9, align 4
  %65 = load i32, ptr %16, align 4
  %66 = sub i32 %64, %65
  store i32 %66, ptr %17, align 4
  %67 = load i32, ptr %14, align 4
  %68 = load i32, ptr %17, align 4
  %69 = icmp slt i32 %67, %68
  br i1 %69, label %70, label %72

70:                                               ; preds = %22
  %71 = load i32, ptr %17, align 4
  store i32 %71, ptr %14, align 4
  br label %86

72:                                               ; preds = %22
  %73 = load i32, ptr %14, align 4
  %74 = load i32, ptr %17, align 4
  %75 = icmp sgt i32 %73, %74
  br i1 %75, label %76, label %85

76:                                               ; preds = %72
  %77 = load ptr, ptr %15, align 8
  %78 = load i32, ptr @hf_sysact_unused_buffer, align 4
  %79 = load ptr, ptr %8, align 8
  %80 = load i32, ptr %9, align 4
  %81 = load i32, ptr %14, align 4
  %82 = load i32, ptr %17, align 4
  %83 = sub i32 %81, %82
  %84 = call ptr @proto_tree_add_item(ptr noundef %77, i32 noundef %78, ptr noundef %79, i32 noundef %80, i32 noundef %83, i32 noundef 0)
  br label %85

85:                                               ; preds = %76, %72
  br label %86

86:                                               ; preds = %85, %70
  %87 = load i32, ptr %16, align 4
  %88 = load i32, ptr %14, align 4
  %89 = add i32 %87, %88
  store i32 %89, ptr %9, align 4
  %90 = load i32, ptr %9, align 4
  call void @llvm.lifetime.end.p0(i64 4, ptr %17) #5
  call void @llvm.lifetime.end.p0(i64 4, ptr %16) #5
  call void @llvm.lifetime.end.p0(i64 8, ptr %15) #5
  ret i32 %90
}