; Function Attrs: null_pointer_is_valid sspstrong uwtable
define internal i32 @dissect_dcom_SecurtiyInfo(ptr noundef %0, i32 noundef %1, ptr noundef %2, ptr noundef %3, ptr noundef %4, ptr noundef %5, i32 noundef %6) #0 {
  %8 = icmp slt i32 %6, 1
  %spec.store.select = select i1 %8, i32 -1, i32 %6
  %9 = load i32, ptr @ett_dcom_securityinfo, align 4
  %10 = tail call ptr @proto_tree_add_subtree(ptr noundef %3, ptr noundef %0, i32 noundef %1, i32 noundef %spec.store.select, i32 noundef %9, ptr noundef null, ptr noundef nonnull @.str.165)
  %11 = tail call fastcc i32 @dissect_TypeSzCommPrivHdr(ptr noundef %0, i32 noundef %1, ptr noundef %2, ptr noundef %10, ptr noundef %4, ptr noundef %5)
  %12 = load i32, ptr @hf_sysact_si_authflalgs, align 4
  %13 = tail call i32 @dissect_ndr_uint32(ptr noundef %0, i32 noundef %11, ptr noundef %2, ptr noundef %10, ptr noundef %4, ptr noundef %5, i32 noundef %12, ptr noundef null)
  %14 = tail call i32 @dissect_ndr_embedded_pointer(ptr noundef %0, i32 noundef %13, ptr noundef %2, ptr noundef %10, ptr noundef %4, ptr noundef %5, ptr noundef nonnull @dissect_dcom_SI_ServerInfo, i32 noundef 2, ptr noundef nonnull @.str.166, i32 noundef -1)
  %15 = tail call i32 @dissect_ndr_embedded_pointer(ptr noundef %0, i32 noundef %14, ptr noundef %2, ptr noundef %10, ptr noundef %4, ptr noundef %5, ptr noundef null, i32 noundef 2, ptr noundef nonnull @.str.167, i32 noundef -1)
  %16 = tail call i32 @dissect_deferred_pointers(ptr noundef %2, ptr noundef %0, i32 noundef %15, ptr noundef %4, ptr noundef %5)
  %17 = sub i32 %16, %1
  %18 = icmp slt i32 %spec.store.select, %17
  br i1 %18, label %25, label %19

19:                                               ; preds = %7
  %20 = icmp sgt i32 %spec.store.select, %17
  br i1 %20, label %21, label %25

21:                                               ; preds = %19
  %22 = load i32, ptr @hf_sysact_unused_buffer, align 4
  %23 = sub i32 %spec.store.select, %17
  %24 = tail call ptr @proto_tree_add_item(ptr noundef %10, i32 noundef %22, ptr noundef %0, i32 noundef %16, i32 noundef %23, i32 noundef 0)
  br label %25

25:                                               ; preds = %7, %19, %21
  %.0 = phi i32 [ %spec.store.select, %21 ], [ %spec.store.select, %19 ], [ %17, %7 ]
  %26 = add i32 %.0, %1
  ret i32 %26
}